target datalayout = "e-m:e-p270:32:32-p271:32:32-p272:64:64-i64:64-i128:128-f80:128-n8:16:32:64-S128"
target triple = "x86_64-pc-linux-gnu"

%"struct.Luau::TypeFunctionContext" = type { %"struct.Luau::NotNull", %"struct.Luau::NotNull.9", %"struct.Luau::NotNull.10", %"struct.Luau::NotNull.11", %"struct.Luau::NotNull.12", %"struct.Luau::NotNull.13", %"struct.Luau::NotNull.14", %"struct.Luau::NotNull.15", ptr, ptr, %"class.std::optional" }
%"struct.Luau::NotNull" = type { ptr }
%"struct.Luau::NotNull.9" = type { ptr }
%"struct.Luau::NotNull.10" = type { ptr }
%"struct.Luau::NotNull.11" = type { ptr }
%"struct.Luau::NotNull.12" = type { ptr }
%"struct.Luau::NotNull.13" = type { ptr }
%"struct.Luau::NotNull.14" = type { ptr }
%"struct.Luau::NotNull.15" = type { ptr }
%"class.std::optional" = type { %"struct.std::_Optional_base" }
%"struct.std::_Optional_base" = type { %"struct.std::_Optional_payload" }
%"struct.std::_Optional_payload" = type { %"struct.std::_Optional_payload_base.base", [7 x i8] }
%"struct.std::_Optional_payload_base.base" = type <{ %"union.std::_Optional_payload_base<Luau::AstName>::_Storage", i8 }>
%"union.std::_Optional_payload_base<Luau::AstName>::_Storage" = type { %"struct.Luau::AstName" }
%"struct.Luau::AstName" = type { ptr }
%"struct.Luau::Location" = type { %"struct.Luau::Position", %"struct.Luau::Position" }
%"struct.Luau::Position" = type { i32, i32 }
%"struct.Luau::NotNull.529" = type { ptr }
%"class.std::vector.34" = type { %"struct.std::_Vector_base.35" }
%"struct.std::_Vector_base.35" = type { %"struct.std::_Vector_base<Luau::NotNull<Luau::Constraint>, std::allocator<Luau::NotNull<Luau::Constraint>>>::_Vector_impl" }
%"struct.std::_Vector_base<Luau::NotNull<Luau::Constraint>, std::allocator<Luau::NotNull<Luau::Constraint>>>::_Vector_impl" = type { %"struct.std::_Vector_base<Luau::NotNull<Luau::Constraint>, std::allocator<Luau::NotNull<Luau::Constraint>>>::_Vector_impl_data" }
%"struct.std::_Vector_base<Luau::NotNull<Luau::Constraint>, std::allocator<Luau::NotNull<Luau::Constraint>>>::_Vector_impl_data" = type { ptr, ptr, ptr }
%"struct.Luau::NotNull.530" = type { ptr }
%"class.Luau::Variant.531" = type { i32, [4 x i8], [96 x i8] }
%"struct.Luau::Constraint" = type { %"struct.Luau::NotNull.10", %"struct.Luau::Location", %"class.Luau::Variant.531", %"class.std::vector.34" }

; Function Attrs: mustprogress nounwind uwtable
define linkonce_odr dso_local noundef ptr @_ZNK4Luau7NotNullINS_10ConstraintEE3getEv(ptr noundef nonnull align 8 dereferenceable(8) %0) #2 comdat align 2 {
  %2 = alloca ptr, align 8
  store ptr %0, ptr %2, align 8, !tbaa !1909
  %3 = load ptr, ptr %2, align 8
  %4 = getelementptr inbounds nuw %"struct.Luau::NotNull.530", ptr %3, i32 0, i32 0
  %5 = load ptr, ptr %4, align 8, !tbaa !2361
  ret ptr %5
}

; Function Attrs: mustprogress nounwind uwtable
define linkonce_odr dso_local void @_ZN4Luau8PositionC2Ejj(ptr noundef nonnull align 4 dereferenceable(8) %0, i32 noundef %1, i32 noundef %2) unnamed_addr #2 comdat align 2 {
  %4 = alloca ptr, align 8
  %5 = alloca i32, align 4
  %6 = alloca i32, align 4
  store ptr %0, ptr %4, align 8, !tbaa !1474
  store i32 %1, ptr %5, align 4, !tbaa !4
  store i32 %2, ptr %6, align 4, !tbaa !4
  %7 = load ptr, ptr %4, align 8
  %8 = getelementptr inbounds nuw %"struct.Luau::Position", ptr %7, i32 0, i32 0
  %9 = load i32, ptr %5, align 4, !tbaa !4
  store i32 %9, ptr %8, align 4, !tbaa !1476
  %10 = getelementptr inbounds nuw %"struct.Luau::Position", ptr %7, i32 0, i32 1
  %11 = load i32, ptr %6, align 4, !tbaa !4
  store i32 %11, ptr %10, align 4, !tbaa !1477
  ret void
}

; Function Attrs: mustprogress nounwind uwtable
define linkonce_odr dso_local void @_ZN4Luau7NotNullIKNS_10ConstraintEEC2IS1_EENS0_IT_EE(ptr noundef nonnull align 8 dereferenceable(8) %0, ptr %1) unnamed_addr #2 comdat align 2 {
  %3 = alloca %"struct.Luau::NotNull.530", align 8
  %4 = alloca ptr, align 8
  %5 = getelementptr inbounds nuw %"struct.Luau::NotNull.530", ptr %3, i32 0, i32 0
  store ptr %1, ptr %5, align 8
  store ptr %0, ptr %4, align 8, !tbaa !578
  %6 = load ptr, ptr %4, align 8
  %7 = getelementptr inbounds nuw %"struct.Luau::NotNull.529", ptr %6, i32 0, i32 0
  %8 = call noundef ptr @_ZNK4Luau7NotNullINS_10ConstraintEE3getEv(ptr noundef nonnull align 8 dereferenceable(8) %3) #4
  store ptr %8, ptr %7, align 8, !tbaa !580
  ret void
}

; Function Attrs: mustprogress nounwind uwtable
define linkonce_odr dso_local void @_ZN4Luau7NotNullIKNS_10ConstraintEEC2EPS2_(ptr noundef nonnull align 8 dereferenceable(8) %0, ptr noundef %1) unnamed_addr #2 comdat align 2 {
  %3 = alloca ptr, align 8
  %4 = alloca ptr, align 8
  store ptr %0, ptr %3, align 8, !tbaa !578
  store ptr %1, ptr %4, align 8, !tbaa !585
  %5 = load ptr, ptr %3, align 8
  %6 = getelementptr inbounds nuw %"struct.Luau::NotNull.529", ptr %5, i32 0, i32 0
  %7 = load ptr, ptr %4, align 8, !tbaa !585
  store ptr %7, ptr %6, align 8, !tbaa !580
  ret void
}

; Function Attrs: mustprogress nounwind uwtable
define linkonce_odr dso_local void @_ZN4Luau7VariantIJNS_17SubtypeConstraintENS_21PackSubtypeConstraintENS_24GeneralizationConstraintENS_18IterableConstraintENS_14NameConstraintENS_28TypeAliasExpansionConstraintENS_22FunctionCallConstraintENS_23FunctionCheckConstraintENS_23PrimitiveTypeConstraintENS_17HasPropConstraintENS_20HasIndexerConstraintENS_20AssignPropConstraintENS_21AssignIndexConstraintENS_16UnpackConstraintENS_16ReduceConstraintENS_20ReducePackConstraintENS_18EqualityConstraintENS_20TableCheckConstraintEEED2Ev(ptr noundef nonnull align 8 dereferenceable(104) %0) unnamed_addr #2 comdat align 2 personality ptr @__gxx_personality_v0 {
  %2 = alloca ptr, align 8
  store ptr %0, ptr %2, align 8, !tbaa !582
  %3 = load ptr, ptr %2, align 8
  %4 = getelementptr inbounds nuw %"class.Luau::Variant.531", ptr %3, i32 0, i32 0
  %5 = load i32, ptr %4, align 8, !tbaa !586
  %6 = sext i32 %5 to i64
  %7 = getelementptr inbounds [18 x ptr], ptr @_ZN4Luau7VariantIJNS_17SubtypeConstraintENS_21PackSubtypeConstraintENS_24GeneralizationConstraintENS_18IterableConstraintENS_14NameConstraintENS_28TypeAliasExpansionConstraintENS_22FunctionCallConstraintENS_23FunctionCheckConstraintENS_23PrimitiveTypeConstraintENS_17HasPropConstraintENS_20HasIndexerConstraintENS_20AssignPropConstraintENS_21AssignIndexConstraintENS_16UnpackConstraintENS_16ReduceConstraintENS_20ReducePackConstraintENS_18EqualityConstraintENS_20TableCheckConstraintEEE9tableDtorE, i64 0, i64 %6
  %8 = load ptr, ptr %7, align 8, !tbaa !51
  %9 = getelementptr inbounds nuw %"class.Luau::Variant.531", ptr %3, i32 0, i32 2
  invoke void %8(ptr noundef %9)
          to label %10 unwind label %11

10:                                               ; preds = %1
  ret void

11:                                               ; preds = %1
  %12 = landingpad { ptr, i32 }
          catch ptr null
  %13 = extractvalue { ptr, i32 } %12, 0
  call void @__clang_call_terminate(ptr %13) #23
  unreachable
}

; Function Attrs: mustprogress uwtable
define linkonce_odr dso_local void @_ZN4Luau7VariantIJNS_17SubtypeConstraintENS_21PackSubtypeConstraintENS_24GeneralizationConstraintENS_18IterableConstraintENS_14NameConstraintENS_28TypeAliasExpansionConstraintENS_22FunctionCallConstraintENS_23FunctionCheckConstraintENS_23PrimitiveTypeConstraintENS_17HasPropConstraintENS_20HasIndexerConstraintENS_20AssignPropConstraintENS_21AssignIndexConstraintENS_16UnpackConstraintENS_16ReduceConstraintENS_20ReducePackConstraintENS_18EqualityConstraintENS_20TableCheckConstraintEEEC2EOSJ_(ptr noundef nonnull align 8 dereferenceable(104) %0, ptr noundef nonnull align 8 dereferenceable(104) %1) unnamed_addr #6 comdat align 2 {
  %3 = alloca ptr, align 8
  %4 = alloca ptr, align 8
  store ptr %0, ptr %3, align 8, !tbaa !582
  store ptr %1, ptr %4, align 8, !tbaa !582
  %5 = load ptr, ptr %3, align 8
  %6 = load ptr, ptr %4, align 8, !tbaa !582
  %7 = getelementptr inbounds nuw %"class.Luau::Variant.531", ptr %6, i32 0, i32 0
  %8 = load i32, ptr %7, align 8, !tbaa !586
  %9 = getelementptr inbounds nuw %"class.Luau::Variant.531", ptr %5, i32 0, i32 0
  store i32 %8, ptr %9, align 8, !tbaa !586
  %10 = getelementptr inbounds nuw %"class.Luau::Variant.531", ptr %5, i32 0, i32 0
  %11 = load i32, ptr %10, align 8, !tbaa !586
  %12 = sext i32 %11 to i64
  %13 = getelementptr inbounds [18 x ptr], ptr @_ZN4Luau7VariantIJNS_17SubtypeConstraintENS_21PackSubtypeConstraintENS_24GeneralizationConstraintENS_18IterableConstraintENS_14NameConstraintENS_28TypeAliasExpansionConstraintENS_22FunctionCallConstraintENS_23FunctionCheckConstraintENS_23PrimitiveTypeConstraintENS_17HasPropConstraintENS_20HasIndexerConstraintENS_20AssignPropConstraintENS_21AssignIndexConstraintENS_16UnpackConstraintENS_16ReduceConstraintENS_20ReducePackConstraintENS_18EqualityConstraintENS_20TableCheckConstraintEEE9tableMoveE, i64 0, i64 %12
  %14 = load ptr, ptr %13, align 8, !tbaa !51
  %15 = getelementptr inbounds nuw %"class.Luau::Variant.531", ptr %5, i32 0, i32 2
  %16 = load ptr, ptr %4, align 8, !tbaa !582
  %17 = getelementptr inbounds nuw %"class.Luau::Variant.531", ptr %16, i32 0, i32 2
  call void %14(ptr noundef %15, ptr noundef %17)
  ret void
}

; Function Attrs: mustprogress uwtable
define linkonce_odr dso_local void @_ZN4Luau8LocationC2Ev(ptr noundef nonnull align 4 dereferenceable(16) %0) unnamed_addr #6 comdat align 2 {
  %2 = alloca ptr, align 8
  store ptr %0, ptr %2, align 8, !tbaa !525
  %3 = load ptr, ptr %2, align 8
  %4 = getelementptr inbounds nuw %"struct.Luau::Location", ptr %3, i32 0, i32 0
  call void @_ZN4Luau8PositionC2Ejj(ptr noundef nonnull align 4 dereferenceable(8) %4, i32 noundef 0, i32 noundef 0)
  %5 = getelementptr inbounds nuw %"struct.Luau::Location", ptr %3, i32 0, i32 1
  call void @_ZN4Luau8PositionC2Ejj(ptr noundef nonnull align 4 dereferenceable(8) %5, i32 noundef 0, i32 noundef 0)
  ret void
}

; Function Attrs: mustprogress uwtable
define dso_local ptr @_ZNK4Luau19TypeFunctionContext14pushConstraintEONS_7VariantIJNS_17SubtypeConstraintENS_21PackSubtypeConstraintENS_24GeneralizationConstraintENS_18IterableConstraintENS_14NameConstraintENS_28TypeAliasExpansionConstraintENS_22FunctionCallConstraintENS_23FunctionCheckConstraintENS_23PrimitiveTypeConstraintENS_17HasPropConstraintENS_20HasIndexerConstraintENS_20AssignPropConstraintENS_21AssignIndexConstraintENS_16UnpackConstraintENS_16ReduceConstraintENS_20ReducePackConstraintENS_18EqualityConstraintENS_20TableCheckConstraintEEEE(ptr noundef nonnull align 8 dereferenceable(96) %0, ptr noundef nonnull align 8 dereferenceable(104) %1) #6 align 2 personality ptr @__gxx_personality_v0 {
  %3 = alloca %"struct.Luau::NotNull.530", align 8
  %4 = alloca ptr, align 8
  %5 = alloca ptr, align 8
  %6 = alloca %"struct.Luau::NotNull.10", align 8
  %7 = alloca %"struct.Luau::Location", align 4
  %8 = alloca %"class.Luau::Variant.531", align 8
  %9 = alloca ptr, align 8
  %10 = alloca i32, align 4
  %11 = alloca %"struct.Luau::NotNull.529", align 8
  %12 = alloca %"struct.Luau::NotNull.529", align 8
  %13 = alloca %"struct.Luau::NotNull.530", align 8
  store ptr %0, ptr %4, align 8, !tbaa !466
  store ptr %1, ptr %5, align 8, !tbaa !582
  %14 = load ptr, ptr %4, align 8
  %15 = getelementptr inbounds nuw %"struct.Luau::TypeFunctionContext", ptr %14, i32 0, i32 8
  %16 = load ptr, ptr %15, align 8, !tbaa !312
  %17 = getelementptr inbounds nuw %"struct.Luau::TypeFunctionContext", ptr %14, i32 0, i32 2
  call void @llvm.memcpy.p0.p0.i64(ptr align 8 %6, ptr align 8 %17, i64 8, i1 false), !tbaa.struct !489
  call void @llvm.lifetime.start.p0(i64 16, ptr %7) #4
  %18 = getelementptr inbounds nuw %"struct.Luau::TypeFunctionContext", ptr %14, i32 0, i32 9
  %19 = load ptr, ptr %18, align 8, !tbaa !570
  %20 = icmp ne ptr %19, null
  br i1 %20, label %21, label %25

21:                                               ; preds = %2
  %22 = getelementptr inbounds nuw %"struct.Luau::TypeFunctionContext", ptr %14, i32 0, i32 9
  %23 = load ptr, ptr %22, align 8, !tbaa !570
  %24 = getelementptr inbounds nuw %"struct.Luau::Constraint", ptr %23, i32 0, i32 1
  call void @llvm.memcpy.p0.p0.i64(ptr align 4 %7, ptr align 8 %24, i64 16, i1 false), !tbaa.struct !46
  br label %26

25:                                               ; preds = %2
  call void @_ZN4Luau8LocationC2Ev(ptr noundef nonnull align 4 dereferenceable(16) %7)
  br label %26

26:                                               ; preds = %25, %21
  %27 = load ptr, ptr %5, align 8, !tbaa !582
  call void @_ZN4Luau7VariantIJNS_17SubtypeConstraintENS_21PackSubtypeConstraintENS_24GeneralizationConstraintENS_18IterableConstraintENS_14NameConstraintENS_28TypeAliasExpansionConstraintENS_22FunctionCallConstraintENS_23FunctionCheckConstraintENS_23PrimitiveTypeConstraintENS_17HasPropConstraintENS_20HasIndexerConstraintENS_20AssignPropConstraintENS_21AssignIndexConstraintENS_16UnpackConstraintENS_16ReduceConstraintENS_20ReducePackConstraintENS_18EqualityConstraintENS_20TableCheckConstraintEEEC2EOSJ_(ptr noundef nonnull align 8 dereferenceable(104) %8, ptr noundef nonnull align 8 dereferenceable(104) %27)
  %28 = getelementptr inbounds nuw %"struct.Luau::NotNull.10", ptr %6, i32 0, i32 0
  %29 = load ptr, ptr %28, align 8
  %30 = invoke ptr @_ZN4Luau16ConstraintSolver14pushConstraintENS_7NotNullINS_5ScopeEEERKNS_8LocationENS_7VariantIJNS_17SubtypeConstraintENS_21PackSubtypeConstraintENS_24GeneralizationConstraintENS_18IterableConstraintENS_14NameConstraintENS_28TypeAliasExpansionConstraintENS_22FunctionCallConstraintENS_23FunctionCheckConstraintENS_23PrimitiveTypeConstraintENS_17HasPropConstraintENS_20HasIndexerConstraintENS_20AssignPropConstraintENS_21AssignIndexConstraintENS_16UnpackConstraintENS_16ReduceConstraintENS_20ReducePackConstraintENS_18EqualityConstraintENS_20TableCheckConstraintEEEE(ptr noundef nonnull align 8 dereferenceable(1032) %16, ptr %29, ptr noundef nonnull align 4 dereferenceable(16) %7, ptr noundef %8)
          to label %31 unwind label %47

31:                                               ; preds = %26
  %32 = getelementptr inbounds nuw %"struct.Luau::NotNull.530", ptr %3, i32 0, i32 0
  store ptr %30, ptr %32, align 8
  call void @_ZN4Luau7VariantIJNS_17SubtypeConstraintENS_21PackSubtypeConstraintENS_24GeneralizationConstraintENS_18IterableConstraintENS_14NameConstraintENS_28TypeAliasExpansionConstraintENS_22FunctionCallConstraintENS_23FunctionCheckConstraintENS_23PrimitiveTypeConstraintENS_17HasPropConstraintENS_20HasIndexerConstraintENS_20AssignPropConstraintENS_21AssignIndexConstraintENS_16UnpackConstraintENS_16ReduceConstraintENS_20ReducePackConstraintENS_18EqualityConstraintENS_20TableCheckConstraintEEED2Ev(ptr noundef nonnull align 8 dereferenceable(104) %8) #4
  call void @llvm.lifetime.end.p0(i64 16, ptr %7) #4
  %33 = getelementptr inbounds nuw %"struct.Luau::TypeFunctionContext", ptr %14, i32 0, i32 9
  %34 = load ptr, ptr %33, align 8, !tbaa !570
  %35 = icmp ne ptr %34, null
  br i1 %35, label %36, label %51

36:                                               ; preds = %31
  %37 = getelementptr inbounds nuw %"struct.Luau::TypeFunctionContext", ptr %14, i32 0, i32 8
  %38 = load ptr, ptr %37, align 8, !tbaa !312
  %39 = getelementptr inbounds nuw %"struct.Luau::TypeFunctionContext", ptr %14, i32 0, i32 9
  %40 = load ptr, ptr %39, align 8, !tbaa !570
  call void @_ZN4Luau7NotNullIKNS_10ConstraintEEC2EPS2_(ptr noundef nonnull align 8 dereferenceable(8) %11, ptr noundef %40)
  call void @llvm.memcpy.p0.p0.i64(ptr align 8 %13, ptr align 8 %3, i64 8, i1 false), !tbaa.struct !584
  %41 = getelementptr inbounds nuw %"struct.Luau::NotNull.530", ptr %13, i32 0, i32 0
  %42 = load ptr, ptr %41, align 8
  call void @_ZN4Luau7NotNullIKNS_10ConstraintEEC2IS1_EENS0_IT_EE(ptr noundef nonnull align 8 dereferenceable(8) %12, ptr %42)
  %43 = getelementptr inbounds nuw %"struct.Luau::NotNull.529", ptr %11, i32 0, i32 0
  %44 = load ptr, ptr %43, align 8
  %45 = getelementptr inbounds nuw %"struct.Luau::NotNull.529", ptr %12, i32 0, i32 0
  %46 = load ptr, ptr %45, align 8
  call void @_ZN4Luau16ConstraintSolver13inheritBlocksENS_7NotNullIKNS_10ConstraintEEES4_(ptr noundef nonnull align 8 dereferenceable(1032) %38, ptr %44, ptr %46)
  br label %51

47:                                               ; preds = %26
  %48 = landingpad { ptr, i32 }
          cleanup
  %49 = extractvalue { ptr, i32 } %48, 0
  store ptr %49, ptr %9, align 8
  %50 = extractvalue { ptr, i32 } %48, 1
  store i32 %50, ptr %10, align 4
  call void @_ZN4Luau7VariantIJNS_17SubtypeConstraintENS_21PackSubtypeConstraintENS_24GeneralizationConstraintENS_18IterableConstraintENS_14NameConstraintENS_28TypeAliasExpansionConstraintENS_22FunctionCallConstraintENS_23FunctionCheckConstraintENS_23PrimitiveTypeConstraintENS_17HasPropConstraintENS_20HasIndexerConstraintENS_20AssignPropConstraintENS_21AssignIndexConstraintENS_16UnpackConstraintENS_16ReduceConstraintENS_20ReducePackConstraintENS_18EqualityConstraintENS_20TableCheckConstraintEEED2Ev(ptr noundef nonnull align 8 dereferenceable(104) %8) #4
  call void @llvm.lifetime.end.p0(i64 16, ptr %7) #4
  br label %54

51:                                               ; preds = %36, %31
  %52 = getelementptr inbounds nuw %"struct.Luau::NotNull.530", ptr %3, i32 0, i32 0
  %53 = load ptr, ptr %52, align 8
  ret ptr %53

54:                                               ; preds = %47
  %55 = load ptr, ptr %9, align 8
  %56 = load i32, ptr %10, align 4
  %57 = insertvalue { ptr, i32 } poison, ptr %55, 0
  %58 = insertvalue { ptr, i32 } %57, i32 %56, 1
  resume { ptr, i32 } %58
}