; Function Attrs: mustprogress uwtable
define dso_local ptr @_ZNK4Luau19TypeFunctionContext14pushConstraintEONS_7VariantIJNS_17SubtypeConstraintENS_21PackSubtypeConstraintENS_24GeneralizationConstraintENS_18IterableConstraintENS_14NameConstraintENS_28TypeAliasExpansionConstraintENS_22FunctionCallConstraintENS_23FunctionCheckConstraintENS_23PrimitiveTypeConstraintENS_17HasPropConstraintENS_20HasIndexerConstraintENS_20AssignPropConstraintENS_21AssignIndexConstraintENS_16UnpackConstraintENS_16ReduceConstraintENS_20ReducePackConstraintENS_18EqualityConstraintENS_20TableCheckConstraintEEEE(ptr noundef nonnull readonly align 8 captures(none) dereferenceable(96) %0, ptr noundef nonnull align 8 dereferenceable(104) %1) local_unnamed_addr #4 align 2 personality ptr @__gxx_personality_v0 {
  %3 = alloca %"struct.Luau::Location", align 4
  %4 = alloca %"class.Luau::Variant.531", align 8
  %5 = getelementptr inbounds nuw i8, ptr %0, i64 64
  %6 = load ptr, ptr %5, align 8, !tbaa !276
  %7 = getelementptr inbounds nuw i8, ptr %0, i64 16
  %.sroa.01.0.copyload = load ptr, ptr %7, align 8, !tbaa !396
  call void @llvm.lifetime.start.p0(i64 16, ptr nonnull %3) #33
  %8 = getelementptr inbounds nuw i8, ptr %0, i64 72
  %9 = load ptr, ptr %8, align 8, !tbaa !561
  %.not = icmp eq ptr %9, null
  br i1 %.not, label %12, label %10

10:                                               ; preds = %2
  %11 = getelementptr inbounds nuw i8, ptr %9, i64 8
  call void @llvm.memcpy.p0.p0.i64(ptr noundef nonnull align 4 dereferenceable(16) %3, ptr noundef nonnull align 8 dereferenceable(16) %11, i64 16, i1 false), !tbaa.struct !202
  br label %13

12:                                               ; preds = %2
  call void @llvm.memset.p0.i64(ptr noundef nonnull align 4 dereferenceable(16) %3, i8 0, i64 16, i1 false)
  br label %13

13:                                               ; preds = %12, %10
  %14 = load i32, ptr %1, align 8, !tbaa !435
  store i32 %14, ptr %4, align 8, !tbaa !435
  %15 = sext i32 %14 to i64
  %16 = getelementptr inbounds [18 x ptr], ptr @_ZN4Luau7VariantIJNS_17SubtypeConstraintENS_21PackSubtypeConstraintENS_24GeneralizationConstraintENS_18IterableConstraintENS_14NameConstraintENS_28TypeAliasExpansionConstraintENS_22FunctionCallConstraintENS_23FunctionCheckConstraintENS_23PrimitiveTypeConstraintENS_17HasPropConstraintENS_20HasIndexerConstraintENS_20AssignPropConstraintENS_21AssignIndexConstraintENS_16UnpackConstraintENS_16ReduceConstraintENS_20ReducePackConstraintENS_18EqualityConstraintENS_20TableCheckConstraintEEE9tableMoveE, i64 0, i64 %15
  %17 = load ptr, ptr %16, align 8, !tbaa !15
  %18 = getelementptr inbounds nuw i8, ptr %4, i64 8
  %19 = getelementptr inbounds nuw i8, ptr %1, i64 8
  call void %17(ptr noundef nonnull %18, ptr noundef nonnull %19)
  %20 = invoke ptr @_ZN4Luau16ConstraintSolver14pushConstraintENS_7NotNullINS_5ScopeEEERKNS_8LocationENS_7VariantIJNS_17SubtypeConstraintENS_21PackSubtypeConstraintENS_24GeneralizationConstraintENS_18IterableConstraintENS_14NameConstraintENS_28TypeAliasExpansionConstraintENS_22FunctionCallConstraintENS_23FunctionCheckConstraintENS_23PrimitiveTypeConstraintENS_17HasPropConstraintENS_20HasIndexerConstraintENS_20AssignPropConstraintENS_21AssignIndexConstraintENS_16UnpackConstraintENS_16ReduceConstraintENS_20ReducePackConstraintENS_18EqualityConstraintENS_20TableCheckConstraintEEEE(ptr noundef nonnull align 8 dereferenceable(1032) %6, ptr %.sroa.01.0.copyload, ptr noundef nonnull align 4 dereferenceable(16) %3, ptr noundef nonnull %4)
          to label %21 unwind label %32

21:                                               ; preds = %13
  %22 = load i32, ptr %4, align 8, !tbaa !435
  %23 = sext i32 %22 to i64
  %24 = getelementptr inbounds [18 x ptr], ptr @_ZN4Luau7VariantIJNS_17SubtypeConstraintENS_21PackSubtypeConstraintENS_24GeneralizationConstraintENS_18IterableConstraintENS_14NameConstraintENS_28TypeAliasExpansionConstraintENS_22FunctionCallConstraintENS_23FunctionCheckConstraintENS_23PrimitiveTypeConstraintENS_17HasPropConstraintENS_20HasIndexerConstraintENS_20AssignPropConstraintENS_21AssignIndexConstraintENS_16UnpackConstraintENS_16ReduceConstraintENS_20ReducePackConstraintENS_18EqualityConstraintENS_20TableCheckConstraintEEE9tableDtorE, i64 0, i64 %23
  %25 = load ptr, ptr %24, align 8, !tbaa !15
  invoke void %25(ptr noundef nonnull %18)
          to label %_ZN4Luau7VariantIJNS_17SubtypeConstraintENS_21PackSubtypeConstraintENS_24GeneralizationConstraintENS_18IterableConstraintENS_14NameConstraintENS_28TypeAliasExpansionConstraintENS_22FunctionCallConstraintENS_23FunctionCheckConstraintENS_23PrimitiveTypeConstraintENS_17HasPropConstraintENS_20HasIndexerConstraintENS_20AssignPropConstraintENS_21AssignIndexConstraintENS_16UnpackConstraintENS_16ReduceConstraintENS_20ReducePackConstraintENS_18EqualityConstraintENS_20TableCheckConstraintEEED2Ev.exit unwind label %26

26:                                               ; preds = %21
  %27 = landingpad { ptr, i32 }
          catch ptr null
  %28 = extractvalue { ptr, i32 } %27, 0
  call void @__clang_call_terminate(ptr %28) #31
  unreachable

_ZN4Luau7VariantIJNS_17SubtypeConstraintENS_21PackSubtypeConstraintENS_24GeneralizationConstraintENS_18IterableConstraintENS_14NameConstraintENS_28TypeAliasExpansionConstraintENS_22FunctionCallConstraintENS_23FunctionCheckConstraintENS_23PrimitiveTypeConstraintENS_17HasPropConstraintENS_20HasIndexerConstraintENS_20AssignPropConstraintENS_21AssignIndexConstraintENS_16UnpackConstraintENS_16ReduceConstraintENS_20ReducePackConstraintENS_18EqualityConstraintENS_20TableCheckConstraintEEED2Ev.exit: ; preds = %21
  call void @llvm.lifetime.end.p0(i64 16, ptr nonnull %3) #33
  %29 = load ptr, ptr %8, align 8, !tbaa !561
  %.not6 = icmp eq ptr %29, null
  br i1 %.not6, label %41, label %30

30:                                               ; preds = %_ZN4Luau7VariantIJNS_17SubtypeConstraintENS_21PackSubtypeConstraintENS_24GeneralizationConstraintENS_18IterableConstraintENS_14NameConstraintENS_28TypeAliasExpansionConstraintENS_22FunctionCallConstraintENS_23FunctionCheckConstraintENS_23PrimitiveTypeConstraintENS_17HasPropConstraintENS_20HasIndexerConstraintENS_20AssignPropConstraintENS_21AssignIndexConstraintENS_16UnpackConstraintENS_16ReduceConstraintENS_20ReducePackConstraintENS_18EqualityConstraintENS_20TableCheckConstraintEEED2Ev.exit
  %31 = load ptr, ptr %5, align 8, !tbaa !276
  call void @_ZN4Luau16ConstraintSolver13inheritBlocksENS_7NotNullIKNS_10ConstraintEEES4_(ptr noundef nonnull align 8 dereferenceable(1032) %31, ptr nonnull %29, ptr %20)
  br label %41

32:                                               ; preds = %13
  %33 = landingpad { ptr, i32 }
          cleanup
  %34 = load i32, ptr %4, align 8, !tbaa !435
  %35 = sext i32 %34 to i64
  %36 = getelementptr inbounds [18 x ptr], ptr @_ZN4Luau7VariantIJNS_17SubtypeConstraintENS_21PackSubtypeConstraintENS_24GeneralizationConstraintENS_18IterableConstraintENS_14NameConstraintENS_28TypeAliasExpansionConstraintENS_22FunctionCallConstraintENS_23FunctionCheckConstraintENS_23PrimitiveTypeConstraintENS_17HasPropConstraintENS_20HasIndexerConstraintENS_20AssignPropConstraintENS_21AssignIndexConstraintENS_16UnpackConstraintENS_16ReduceConstraintENS_20ReducePackConstraintENS_18EqualityConstraintENS_20TableCheckConstraintEEE9tableDtorE, i64 0, i64 %35
  %37 = load ptr, ptr %36, align 8, !tbaa !15
  invoke void %37(ptr noundef nonnull %18)
          to label %_ZN4Luau7VariantIJNS_17SubtypeConstraintENS_21PackSubtypeConstraintENS_24GeneralizationConstraintENS_18IterableConstraintENS_14NameConstraintENS_28TypeAliasExpansionConstraintENS_22FunctionCallConstraintENS_23FunctionCheckConstraintENS_23PrimitiveTypeConstraintENS_17HasPropConstraintENS_20HasIndexerConstraintENS_20AssignPropConstraintENS_21AssignIndexConstraintENS_16UnpackConstraintENS_16ReduceConstraintENS_20ReducePackConstraintENS_18EqualityConstraintENS_20TableCheckConstraintEEED2Ev.exit7 unwind label %38

38:                                               ; preds = %32
  %39 = landingpad { ptr, i32 }
          catch ptr null
  %40 = extractvalue { ptr, i32 } %39, 0
  call void @__clang_call_terminate(ptr %40) #31
  unreachable

_ZN4Luau7VariantIJNS_17SubtypeConstraintENS_21PackSubtypeConstraintENS_24GeneralizationConstraintENS_18IterableConstraintENS_14NameConstraintENS_28TypeAliasExpansionConstraintENS_22FunctionCallConstraintENS_23FunctionCheckConstraintENS_23PrimitiveTypeConstraintENS_17HasPropConstraintENS_20HasIndexerConstraintENS_20AssignPropConstraintENS_21AssignIndexConstraintENS_16UnpackConstraintENS_16ReduceConstraintENS_20ReducePackConstraintENS_18EqualityConstraintENS_20TableCheckConstraintEEED2Ev.exit7: ; preds = %32
  call void @llvm.lifetime.end.p0(i64 16, ptr nonnull %3) #33
  resume { ptr, i32 } %33

41:                                               ; preds = %30, %_ZN4Luau7VariantIJNS_17SubtypeConstraintENS_21PackSubtypeConstraintENS_24GeneralizationConstraintENS_18IterableConstraintENS_14NameConstraintENS_28TypeAliasExpansionConstraintENS_22FunctionCallConstraintENS_23FunctionCheckConstraintENS_23PrimitiveTypeConstraintENS_17HasPropConstraintENS_20HasIndexerConstraintENS_20AssignPropConstraintENS_21AssignIndexConstraintENS_16UnpackConstraintENS_16ReduceConstraintENS_20ReducePackConstraintENS_18EqualityConstraintENS_20TableCheckConstraintEEED2Ev.exit
  ret ptr %20
}